target datalayout = "e-m:e-p270:32:32-p271:32:32-p272:64:64-i64:64-i128:128-f80:128-n8:16:32:64-S128"
target triple = "x86_64-pc-linux-gnu"

%struct.hwloc_infos_s = type { ptr, i32, i32 }
%struct.hwloc_obj = type { i32, ptr, i32, ptr, i64, ptr, i32, i32, ptr, ptr, ptr, i32, ptr, ptr, i32, ptr, ptr, ptr, i32, i32, ptr, i32, ptr, i32, ptr, ptr, ptr, ptr, ptr, %struct.hwloc_infos_s, ptr, i64 }

; Function Attrs: nounwind uwtable
define internal void @hwloc_propagate_symmetric_subtree(ptr noundef %0, ptr noundef %1) #0 {
  %3 = alloca ptr, align 8
  %4 = alloca ptr, align 8
  %5 = alloca ptr, align 8
  %6 = alloca i32, align 4
  %7 = alloca ptr, align 8
  %8 = alloca i32, align 4
  %9 = alloca i32, align 4
  %10 = alloca i32, align 4
  store ptr %0, ptr %3, align 8, !tbaa !3
  store ptr %1, ptr %4, align 8, !tbaa !37
  call void @llvm.lifetime.start.p0(i64 8, ptr %5) #14
  call void @llvm.lifetime.start.p0(i64 4, ptr %6) #14
  %11 = load ptr, ptr %4, align 8, !tbaa !37
  %12 = getelementptr inbounds nuw %struct.hwloc_obj, ptr %11, i32 0, i32 14
  %13 = load i32, ptr %12, align 8, !tbaa !126
  store i32 %13, ptr %6, align 4, !tbaa !33
  call void @llvm.lifetime.start.p0(i64 8, ptr %7) #14
  call void @llvm.lifetime.start.p0(i64 4, ptr %8) #14
  %14 = load ptr, ptr %4, align 8, !tbaa !37
  %15 = getelementptr inbounds nuw %struct.hwloc_obj, ptr %14, i32 0, i32 18
  store i32 0, ptr %15, align 8, !tbaa !119
  %16 = load i32, ptr %6, align 4, !tbaa !33
  %17 = icmp ne i32 %16, 0
  br i1 %17, label %19, label %18

18:                                               ; preds = %2
  br label %137

19:                                               ; preds = %2
  store i32 1, ptr %8, align 4, !tbaa !33
  %20 = load ptr, ptr %4, align 8, !tbaa !37
  %21 = getelementptr inbounds nuw %struct.hwloc_obj, ptr %20, i32 0, i32 16
  %22 = load ptr, ptr %21, align 8, !tbaa !130
  store ptr %22, ptr %5, align 8, !tbaa !37
  br label %23

23:                                               ; preds = %35, %19
  %24 = load ptr, ptr %5, align 8, !tbaa !37
  %25 = icmp ne ptr %24, null
  br i1 %25, label %26, label %39

26:                                               ; preds = %23
  %27 = load ptr, ptr %3, align 8, !tbaa !3
  %28 = load ptr, ptr %5, align 8, !tbaa !37
  call void @hwloc_propagate_symmetric_subtree(ptr noundef %27, ptr noundef %28)
  %29 = load ptr, ptr %5, align 8, !tbaa !37
  %30 = getelementptr inbounds nuw %struct.hwloc_obj, ptr %29, i32 0, i32 18
  %31 = load i32, ptr %30, align 8, !tbaa !119
  %32 = icmp ne i32 %31, 0
  br i1 %32, label %34, label %33

33:                                               ; preds = %26
  store i32 0, ptr %8, align 4, !tbaa !33
  br label %34

34:                                               ; preds = %33, %26
  br label %35

35:                                               ; preds = %34
  %36 = load ptr, ptr %5, align 8, !tbaa !37
  %37 = getelementptr inbounds nuw %struct.hwloc_obj, ptr %36, i32 0, i32 12
  %38 = load ptr, ptr %37, align 8, !tbaa !82
  store ptr %38, ptr %5, align 8, !tbaa !37
  br label %23, !llvm.loop !184

39:                                               ; preds = %23
  %40 = load i32, ptr %8, align 4, !tbaa !33
  %41 = icmp ne i32 %40, 0
  br i1 %41, label %43, label %42

42:                                               ; preds = %39
  store i32 1, ptr %9, align 4
  br label %140

43:                                               ; preds = %39
  %44 = load i32, ptr %6, align 4, !tbaa !33
  %45 = icmp eq i32 %44, 1
  br i1 %45, label %46, label %47

46:                                               ; preds = %43
  br label %137

47:                                               ; preds = %43
  %48 = load i32, ptr %6, align 4, !tbaa !33
  %49 = zext i32 %48 to i64
  %50 = mul i64 %49, 8
  %51 = call noalias ptr @malloc(i64 noundef %50) #18
  store ptr %51, ptr %7, align 8, !tbaa !52
  %52 = load ptr, ptr %7, align 8, !tbaa !52
  %53 = icmp ne ptr %52, null
  br i1 %53, label %55, label %54

54:                                               ; preds = %47
  store i32 1, ptr %9, align 4
  br label %140

55:                                               ; preds = %47
  %56 = load ptr, ptr %7, align 8, !tbaa !52
  %57 = load ptr, ptr %4, align 8, !tbaa !37
  %58 = getelementptr inbounds nuw %struct.hwloc_obj, ptr %57, i32 0, i32 15
  %59 = load ptr, ptr %58, align 8, !tbaa !74
  %60 = load i32, ptr %6, align 4, !tbaa !33
  %61 = zext i32 %60 to i64
  %62 = mul i64 %61, 8
  call void @llvm.memcpy.p0.p0.i64(ptr align 8 %56, ptr align 8 %59, i64 %62, i1 false)
  br label %63

63:                                               ; preds = %134, %55
  br label %64

64:                                               ; preds = %63
  call void @llvm.lifetime.start.p0(i64 4, ptr %10) #14
  store i32 1, ptr %10, align 4, !tbaa !33
  br label %65

65:                                               ; preds = %100, %64
  %66 = load i32, ptr %10, align 4, !tbaa !33
  %67 = load i32, ptr %6, align 4, !tbaa !33
  %68 = icmp ult i32 %66, %67
  br i1 %68, label %69, label %103

69:                                               ; preds = %65
  %70 = load ptr, ptr %7, align 8, !tbaa !52
  %71 = load i32, ptr %10, align 4, !tbaa !33
  %72 = zext i32 %71 to i64
  %73 = getelementptr inbounds nuw ptr, ptr %70, i64 %72
  %74 = load ptr, ptr %73, align 8, !tbaa !37
  %75 = getelementptr inbounds nuw %struct.hwloc_obj, ptr %74, i32 0, i32 6
  %76 = load i32, ptr %75, align 8, !tbaa !117
  %77 = load ptr, ptr %7, align 8, !tbaa !52
  %78 = getelementptr inbounds ptr, ptr %77, i64 0
  %79 = load ptr, ptr %78, align 8, !tbaa !37
  %80 = getelementptr inbounds nuw %struct.hwloc_obj, ptr %79, i32 0, i32 6
  %81 = load i32, ptr %80, align 8, !tbaa !117
  %82 = icmp ne i32 %76, %81
  br i1 %82, label %97, label %83

83:                                               ; preds = %69
  %84 = load ptr, ptr %7, align 8, !tbaa !52
  %85 = load i32, ptr %10, align 4, !tbaa !33
  %86 = zext i32 %85 to i64
  %87 = getelementptr inbounds nuw ptr, ptr %84, i64 %86
  %88 = load ptr, ptr %87, align 8, !tbaa !37
  %89 = getelementptr inbounds nuw %struct.hwloc_obj, ptr %88, i32 0, i32 14
  %90 = load i32, ptr %89, align 8, !tbaa !126
  %91 = load ptr, ptr %7, align 8, !tbaa !52
  %92 = getelementptr inbounds ptr, ptr %91, i64 0
  %93 = load ptr, ptr %92, align 8, !tbaa !37
  %94 = getelementptr inbounds nuw %struct.hwloc_obj, ptr %93, i32 0, i32 14
  %95 = load i32, ptr %94, align 8, !tbaa !126
  %96 = icmp ne i32 %90, %95
  br i1 %96, label %97, label %99

97:                                               ; preds = %83, %69
  %98 = load ptr, ptr %7, align 8, !tbaa !52
  call void @free(ptr noundef %98) #14
  store i32 1, ptr %9, align 4
  br label %132

99:                                               ; preds = %83
  br label %100

100:                                              ; preds = %99
  %101 = load i32, ptr %10, align 4, !tbaa !33
  %102 = add i32 %101, 1
  store i32 %102, ptr %10, align 4, !tbaa !33
  br label %65, !llvm.loop !185

103:                                              ; preds = %65
  %104 = load ptr, ptr %7, align 8, !tbaa !52
  %105 = getelementptr inbounds ptr, ptr %104, i64 0
  %106 = load ptr, ptr %105, align 8, !tbaa !37
  %107 = getelementptr inbounds nuw %struct.hwloc_obj, ptr %106, i32 0, i32 14
  %108 = load i32, ptr %107, align 8, !tbaa !126
  %109 = icmp ne i32 %108, 0
  br i1 %109, label %111, label %110

110:                                              ; preds = %103
  store i32 7, ptr %9, align 4
  br label %132

111:                                              ; preds = %103
  store i32 0, ptr %10, align 4, !tbaa !33
  br label %112

112:                                              ; preds = %128, %111
  %113 = load i32, ptr %10, align 4, !tbaa !33
  %114 = load i32, ptr %6, align 4, !tbaa !33
  %115 = icmp ult i32 %113, %114
  br i1 %115, label %116, label %131

116:                                              ; preds = %112
  %117 = load ptr, ptr %7, align 8, !tbaa !52
  %118 = load i32, ptr %10, align 4, !tbaa !33
  %119 = zext i32 %118 to i64
  %120 = getelementptr inbounds nuw ptr, ptr %117, i64 %119
  %121 = load ptr, ptr %120, align 8, !tbaa !37
  %122 = getelementptr inbounds nuw %struct.hwloc_obj, ptr %121, i32 0, i32 16
  %123 = load ptr, ptr %122, align 8, !tbaa !130
  %124 = load ptr, ptr %7, align 8, !tbaa !52
  %125 = load i32, ptr %10, align 4, !tbaa !33
  %126 = zext i32 %125 to i64
  %127 = getelementptr inbounds nuw ptr, ptr %124, i64 %126
  store ptr %123, ptr %127, align 8, !tbaa !37
  br label %128

128:                                              ; preds = %116
  %129 = load i32, ptr %10, align 4, !tbaa !33
  %130 = add i32 %129, 1
  store i32 %130, ptr %10, align 4, !tbaa !33
  br label %112, !llvm.loop !186

131:                                              ; preds = %112
  store i32 0, ptr %9, align 4
  br label %132

132:                                              ; preds = %131, %110, %97
  call void @llvm.lifetime.end.p0(i64 4, ptr %10) #14
  %133 = load i32, ptr %9, align 4
  switch i32 %133, label %140 [
    i32 0, label %134
    i32 7, label %135
  ]

134:                                              ; preds = %132
  br label %63

135:                                              ; preds = %132
  %136 = load ptr, ptr %7, align 8, !tbaa !52
  call void @free(ptr noundef %136) #14
  br label %137

137:                                              ; preds = %135, %46, %18
  %138 = load ptr, ptr %4, align 8, !tbaa !37
  %139 = getelementptr inbounds nuw %struct.hwloc_obj, ptr %138, i32 0, i32 18
  store i32 1, ptr %139, align 8, !tbaa !119
  store i32 0, ptr %9, align 4
  br label %140

140:                                              ; preds = %137, %132, %54, %42
  call void @llvm.lifetime.end.p0(i64 4, ptr %8) #14
  call void @llvm.lifetime.end.p0(i64 8, ptr %7) #14
  call void @llvm.lifetime.end.p0(i64 4, ptr %6) #14
  call void @llvm.lifetime.end.p0(i64 8, ptr %5) #14
  %141 = load i32, ptr %9, align 4
  switch i32 %141, label %143 [
    i32 0, label %142
    i32 1, label %142
  ]

142:                                              ; preds = %140, %140
  ret void

143:                                              ; preds = %140
  unreachable
}