; Function Attrs: nounwind uwtable
define internal fastcc void @hwloc_propagate_symmetric_subtree(ptr noundef captures(none) initializes((136, 140)) %0) unnamed_addr #5 {
  %2 = getelementptr inbounds nuw i8, ptr %0, i64 104
  %3 = load i32, ptr %2, align 8, !tbaa !124
  %4 = getelementptr inbounds nuw i8, ptr %0, i64 136
  store i32 0, ptr %4, align 8, !tbaa !117
  %.not = icmp eq i32 %3, 0
  br i1 %.not, label %36, label %5

5:                                                ; preds = %1
  %6 = getelementptr inbounds nuw i8, ptr %0, i64 120
  %.0394 = load ptr, ptr %6, align 8, !tbaa !50
  %.not425 = icmp eq ptr %.0394, null
  br i1 %.not425, label %._crit_edge.thread, label %.lr.ph

.lr.ph:                                           ; preds = %5, %.lr.ph
  %.0397 = phi ptr [ %.039, %.lr.ph ], [ %.0394, %5 ]
  %.0376 = phi i32 [ %spec.select, %.lr.ph ], [ 1, %5 ]
  tail call fastcc void @hwloc_propagate_symmetric_subtree(ptr noundef nonnull %.0397)
  %7 = getelementptr inbounds nuw i8, ptr %.0397, i64 136
  %8 = load i32, ptr %7, align 8, !tbaa !117
  %.not48 = icmp eq i32 %8, 0
  %spec.select = select i1 %.not48, i32 0, i32 %.0376
  %9 = getelementptr inbounds nuw i8, ptr %.0397, i64 88
  %.039 = load ptr, ptr %9, align 8, !tbaa !50
  %.not42 = icmp eq ptr %.039, null
  br i1 %.not42, label %._crit_edge, label %.lr.ph, !llvm.loop !179

._crit_edge:                                      ; preds = %.lr.ph
  %10 = icmp eq i32 %spec.select, 0
  br i1 %10, label %37, label %._crit_edge.thread

._crit_edge.thread:                               ; preds = %5, %._crit_edge
  %11 = icmp eq i32 %3, 1
  br i1 %11, label %36, label %12

12:                                               ; preds = %._crit_edge.thread
  %13 = zext i32 %3 to i64
  %14 = shl nuw nsw i64 %13, 3
  %15 = tail call noalias ptr @malloc(i64 noundef %14) #35
  %.not44 = icmp eq ptr %15, null
  br i1 %.not44, label %37, label %.lr.ph10.us.preheader

.lr.ph10.us.preheader:                            ; preds = %12
  %16 = getelementptr inbounds nuw i8, ptr %0, i64 112
  %17 = load ptr, ptr %16, align 8, !tbaa !82
  tail call void @llvm.memcpy.p0.p0.i64(ptr nonnull align 8 %15, ptr align 8 %17, i64 %14, i1 false)
  %umax = tail call i32 @llvm.umax.i32(i32 %3, i32 2)
  %umax21 = tail call i32 @llvm.umax.i32(i32 %3, i32 1)
  %wide.trip.count = zext i32 %umax to i64
  %wide.trip.count22 = zext i32 %umax21 to i64
  br label %.lr.ph10.us

.lr.ph10.us.loopexit:                             ; preds = %.preheader.us
  br label %.lr.ph10.us, !llvm.loop !180

.lr.ph10.us:                                      ; preds = %.lr.ph10.us.preheader, %.lr.ph10.us.loopexit
  %18 = load ptr, ptr %15, align 8, !tbaa !50
  %19 = getelementptr inbounds nuw i8, ptr %18, i64 48
  %20 = load i32, ptr %19, align 8, !tbaa !115
  %21 = getelementptr inbounds nuw i8, ptr %18, i64 104
  br label %27

22:                                               ; preds = %32
  %indvars.iv.next = add nuw nsw i64 %indvars.iv, 1
  %exitcond.not = icmp eq i64 %indvars.iv.next, %wide.trip.count
  br i1 %exitcond.not, label %._crit_edge11.us, label %27, !llvm.loop !181

.preheader.us:                                    ; preds = %._crit_edge11.us, %.preheader.us
  %indvars.iv18 = phi i64 [ %indvars.iv.next19, %.preheader.us ], [ 0, %._crit_edge11.us ]
  %23 = getelementptr inbounds nuw ptr, ptr %15, i64 %indvars.iv18
  %24 = load ptr, ptr %23, align 8, !tbaa !50
  %25 = getelementptr inbounds nuw i8, ptr %24, i64 120
  %26 = load ptr, ptr %25, align 8, !tbaa !55
  store ptr %26, ptr %23, align 8, !tbaa !50
  %indvars.iv.next19 = add nuw nsw i64 %indvars.iv18, 1
  %exitcond23.not = icmp eq i64 %indvars.iv.next19, %wide.trip.count22
  br i1 %exitcond23.not, label %.lr.ph10.us.loopexit, label %.preheader.us, !llvm.loop !180

27:                                               ; preds = %.lr.ph10.us, %22
  %indvars.iv = phi i64 [ 1, %.lr.ph10.us ], [ %indvars.iv.next, %22 ]
  %28 = getelementptr inbounds nuw ptr, ptr %15, i64 %indvars.iv
  %29 = load ptr, ptr %28, align 8, !tbaa !50
  %30 = getelementptr inbounds nuw i8, ptr %29, i64 48
  %31 = load i32, ptr %30, align 8, !tbaa !115
  %.not46.us = icmp eq i32 %31, %20
  br i1 %.not46.us, label %32, label %.thread

32:                                               ; preds = %27
  %33 = getelementptr inbounds nuw i8, ptr %29, i64 104
  %34 = load i32, ptr %33, align 8, !tbaa !124
  %35 = load i32, ptr %21, align 8, !tbaa !124
  %.not47.us = icmp eq i32 %34, %35
  br i1 %.not47.us, label %22, label %.thread

._crit_edge11.us:                                 ; preds = %22
  %.not45.us = icmp eq i32 %34, 0
  br i1 %.not45.us, label %.split14.us, label %.preheader.us

.thread:                                          ; preds = %27, %32
  tail call void @free(ptr noundef %15) #34
  br label %37

.split14.us:                                      ; preds = %._crit_edge11.us
  tail call void @free(ptr noundef nonnull %15) #34
  br label %36

36:                                               ; preds = %._crit_edge.thread, %1, %.split14.us
  store i32 1, ptr %4, align 8, !tbaa !117
  br label %37

37:                                               ; preds = %.thread, %12, %._crit_edge, %36
  ret void
}